target datalayout = "e-m:e-p270:32:32-p271:32:32-p272:64:64-i64:64-i128:128-f80:128-n8:16:32:64-S128"
target triple = "x86_64-pc-linux-gnu"

%"class.boost::core::basic_string_view" = type { ptr, i64 }

@.str = private unnamed_addr constant [4 x i8] c"ftp\00", align 1
@.str.1 = private unnamed_addr constant [5 x i8] c"file\00", align 1
@.str.2 = private unnamed_addr constant [5 x i8] c"http\00", align 1
@.str.3 = private unnamed_addr constant [6 x i8] c"https\00", align 1
@.str.4 = private unnamed_addr constant [3 x i8] c"ws\00", align 1
@.str.5 = private unnamed_addr constant [4 x i8] c"wss\00", align 1
@.str.6 = private unnamed_addr constant [10 x i8] c"<unknown>\00", align 1

; Function Attrs: noinline noreturn nounwind uwtable
define linkonce_odr hidden void @__clang_call_terminate(ptr noundef %0) #1 comdat {
  %2 = call ptr @__cxa_begin_catch(ptr %0) #3
  call void @_ZSt9terminatev() #4
  unreachable
}

; Function Attrs: mustprogress nounwind uwtable
define linkonce_odr hidden noundef i64 @_ZNSt11char_traitsIcE6lengthEPKc(ptr noundef %0) #0 comdat align 2 {
  %2 = alloca ptr, align 8
  store ptr %0, ptr %2, align 8, !tbaa !6
  %3 = load ptr, ptr %2, align 8, !tbaa !6
  %4 = call i64 @strlen(ptr noundef %3) #3
  ret i64 %4
}

; Function Attrs: mustprogress nounwind uwtable
define linkonce_odr hidden void @_ZN5boost4core17basic_string_viewIcEC2Ev(ptr noundef nonnull align 8 dereferenceable(16) %0) unnamed_addr #0 comdat align 2 {
  %2 = alloca ptr, align 8
  store ptr %0, ptr %2, align 8, !tbaa !6
  %3 = load ptr, ptr %2, align 8
  %4 = getelementptr inbounds nuw %"class.boost::core::basic_string_view", ptr %3, i32 0, i32 0
  store ptr null, ptr %4, align 8, !tbaa !12
  %5 = getelementptr inbounds nuw %"class.boost::core::basic_string_view", ptr %3, i32 0, i32 1
  store i64 0, ptr %5, align 8, !tbaa !8
  ret void
}

; Function Attrs: mustprogress nounwind uwtable
define linkonce_odr hidden void @_ZN5boost4core17basic_string_viewIcEC2EPKc(ptr noundef nonnull align 8 dereferenceable(16) %0, ptr noundef %1) unnamed_addr #0 comdat align 2 personality ptr @__gxx_personality_v0 {
  %3 = alloca ptr, align 8
  %4 = alloca ptr, align 8
  store ptr %0, ptr %3, align 8, !tbaa !6
  store ptr %1, ptr %4, align 8, !tbaa !6
  %5 = load ptr, ptr %3, align 8
  %6 = getelementptr inbounds nuw %"class.boost::core::basic_string_view", ptr %5, i32 0, i32 0
  %7 = load ptr, ptr %4, align 8, !tbaa !6
  store ptr %7, ptr %6, align 8, !tbaa !12
  %8 = getelementptr inbounds nuw %"class.boost::core::basic_string_view", ptr %5, i32 0, i32 1
  %9 = load ptr, ptr %4, align 8, !tbaa !6
  %10 = invoke noundef i64 @_ZNSt11char_traitsIcE6lengthEPKc(ptr noundef %9)
          to label %11 unwind label %12

11:                                               ; preds = %2
  store i64 %10, ptr %8, align 8, !tbaa !8
  ret void

12:                                               ; preds = %2
  %13 = landingpad { ptr, i32 }
          catch ptr null
  %14 = extractvalue { ptr, i32 } %13, 0
  call void @__clang_call_terminate(ptr %14) #4
  unreachable
}

; Function Attrs: mustprogress nounwind uwtable
define { ptr, i64 } @_ZN5boost4urls9to_stringENS0_6schemeE(i16 noundef zeroext %0) #0 {
  %2 = alloca %"class.boost::core::basic_string_view", align 8
  %3 = alloca i16, align 2
  store i16 %0, ptr %3, align 2, !tbaa !13
  %4 = load i16, ptr %3, align 2, !tbaa !13
  switch i16 %4, label %12 [
    i16 2, label %5
    i16 3, label %6
    i16 4, label %7
    i16 5, label %8
    i16 6, label %9
    i16 7, label %10
    i16 0, label %11
  ]

5:                                                ; preds = %1
  call void @_ZN5boost4core17basic_string_viewIcEC2EPKc(ptr noundef nonnull align 8 dereferenceable(16) %2, ptr noundef @.str) #3
  br label %14

6:                                                ; preds = %1
  call void @_ZN5boost4core17basic_string_viewIcEC2EPKc(ptr noundef nonnull align 8 dereferenceable(16) %2, ptr noundef @.str.1) #3
  br label %14

7:                                                ; preds = %1
  call void @_ZN5boost4core17basic_string_viewIcEC2EPKc(ptr noundef nonnull align 8 dereferenceable(16) %2, ptr noundef @.str.2) #3
  br label %14

8:                                                ; preds = %1
  call void @_ZN5boost4core17basic_string_viewIcEC2EPKc(ptr noundef nonnull align 8 dereferenceable(16) %2, ptr noundef @.str.3) #3
  br label %14

9:                                                ; preds = %1
  call void @_ZN5boost4core17basic_string_viewIcEC2EPKc(ptr noundef nonnull align 8 dereferenceable(16) %2, ptr noundef @.str.4) #3
  br label %14

10:                                               ; preds = %1
  call void @_ZN5boost4core17basic_string_viewIcEC2EPKc(ptr noundef nonnull align 8 dereferenceable(16) %2, ptr noundef @.str.5) #3
  br label %14

11:                                               ; preds = %1
  call void @_ZN5boost4core17basic_string_viewIcEC2Ev(ptr noundef nonnull align 8 dereferenceable(16) %2) #3
  br label %14

12:                                               ; preds = %1
  br label %13

13:                                               ; preds = %12
  call void @_ZN5boost4core17basic_string_viewIcEC2EPKc(ptr noundef nonnull align 8 dereferenceable(16) %2, ptr noundef @.str.6) #3
  br label %14

14:                                               ; preds = %13, %11, %10, %9, %8, %7, %6, %5
  %15 = load { ptr, i64 }, ptr %2, align 8
  ret { ptr, i64 } %15
}