; Function Attrs: mustprogress nofree norecurse nosync nounwind willreturn memory(none) uwtable
define { ptr, i64 } @_ZN5boost4urls9to_stringENS0_6schemeE(i16 noundef zeroext %0) local_unnamed_addr #1 personality ptr @__gxx_personality_v0 {
  %2 = icmp ult i16 %0, 8
  br i1 %2, label %switch.lookup, label %5

switch.lookup:                                    ; preds = %1
  %3 = zext nneg i16 %0 to i64
  %switch.gep = getelementptr inbounds [8 x ptr], ptr @switch.table._ZN5boost4urls9to_stringENS0_6schemeE, i64 0, i64 %3
  %switch.load = load ptr, ptr %switch.gep, align 8
  %4 = zext nneg i16 %0 to i64
  %switch.gep1 = getelementptr inbounds [8 x i64], ptr @switch.table._ZN5boost4urls9to_stringENS0_6schemeE.1, i64 0, i64 %4
  %switch.load2 = load i64, ptr %switch.gep1, align 8
  br label %5

5:                                                ; preds = %1, %switch.lookup
  %.sroa.0.0 = phi ptr [ %switch.load, %switch.lookup ], [ @.str.6, %1 ]
  %.sroa.9.0 = phi i64 [ %switch.load2, %switch.lookup ], [ 9, %1 ]
  %.fca.0.insert = insertvalue { ptr, i64 } poison, ptr %.sroa.0.0, 0
  %.fca.1.insert = insertvalue { ptr, i64 } %.fca.0.insert, i64 %.sroa.9.0, 1
  ret { ptr, i64 } %.fca.1.insert
}